Certificate:
    Data:
        Version: 3 (0x2)
        Serial Number:
            df:f9:49:17:51:ef:e2:51
        Signature Algorithm: sha1WithRSAEncryption
        Issuer: C=UK, ST=England, O=Belo82, CN=demo CA
        Validity
            Not Before: Jul 14 18:54:40 2015 GMT
            Not After : Jul 13 18:54:40 2018 GMT
        Subject: C=UK, ST=England, O=Belo82, CN=demo CA
        Subject Public Key Info:
            Public Key Algorithm: rsaEncryption
            RSA Public Key: (1024 bit)
                Modulus (1024 bit):
                    00:ef:29:2a:5d:2d:1c:da:1f:6f:56:ab:a6:03:0b:
                    5a:35:d5:b1:93:89:70:94:83:84:8c:38:31:12:23:
                    51:08:a7:7c:c6:34:30:68:1c:f9:bd:7e:e4:18:d6:
                    6c:1c:9e:c0:12:fd:26:f2:70:ff:bf:ee:fd:40:d1:
                    0d:84:15:7e:55:0a:4e:fc:7d:e5:ce:52:c4:c4:d5:
                    5e:26:9a:e1:4c:c8:37:1e:d5:64:2d:89:40:64:b2:
                    4f:4b:85:b3:39:17:3d:51:e8:a0:ed:7b:d1:1f:7b:
                    12:fe:08:a7:4d:38:4a:78:e1:68:b0:9a:5b:bb:e8:
                    78:66:aa:7f:11:78:c0:ea:e9
                Exponent: 65537 (0x10001)
        X509v3 extensions:
            X509v3 Subject Key Identifier: 
                E3:D0:9D:DE:20:86:C6:33:7D:51:A6:0E:E6:AD:40:5E:B3:75:EC:D3
            X509v3 Authority Key Identifier: 
                keyid:E3:D0:9D:DE:20:86:C6:33:7D:51:A6:0E:E6:AD:40:5E:B3:75:EC:D3
                DirName:/C=UK/ST=England/O=Belo82/CN=demo CA
                serial:DF:F9:49:17:51:EF:E2:51

            X509v3 Basic Constraints: 
                CA:TRUE
    Signature Algorithm: sha1WithRSAEncryption
        20:7c:d2:bf:97:8b:55:27:8c:64:59:2c:a8:88:a8:05:36:17:
        ec:b9:50:01:f2:c5:1a:8b:25:d6:61:05:67:5e:ef:c1:50:93:
        c9:bd:c4:6d:c5:8b:68:02:39:a6:56:8d:ee:e0:ec:4e:25:e4:
        47:a3:70:07:bb:59:6b:18:8f:bb:a1:12:7c:3d:44:07:0f:8d:
        f2:3f:57:6a:e8:e7:ab:82:56:3f:43:1d:41:6c:8d:69:10:9d:
        c5:5c:c1:95:df:2e:f5:ce:81:dd:82:b8:42:a8:eb:5b:91:17:
        42:17:80:fb:06:95:5d:4b:3b:9b:95:e3:37:da:ca:55:b9:f0:
        93:96
-----BEGIN CERTIFICATE-----
MIICpzCCAhCgAwIBAgIJAN/5SRdR7+JRMA0GCSqGSIb3DQEBBQUAMEIxCzAJBgNV
BAYTAlVLMRAwDgYDVQQIEwdFbmdsYW5kMQ8wDQYDVQQKEwZCZWxvODIxEDAOBgNV
BAMTB2RlbW8gQ0EwHhcNMTUwNzE0MTg1NDQwWhcNMTgwNzEzMTg1NDQwWjBCMQsw
CQYDVQQGEwJVSzEQMA4GA1UECBMHRW5nbGFuZDEPMA0GA1UEChMGQmVsbzgyMRAw
DgYDVQQDEwdkZW1vIENBMIGfMA0GCSqGSIb3DQEBAQUAA4GNADCBiQKBgQDvKSpd
LRzaH29Wq6YDC1o11bGTiXCUg4SMODESI1EIp3zGNDBoHPm9fuQY1mwcnsAS/Sby
cP+/7v1A0Q2EFX5VCk78feXOUsTE1V4mmuFMyDce1WQtiUBksk9LhbM5Fz1R6KDt
e9EfexL+CKdNOEp44Wiwmlu76Hhmqn8ReMDq6QIDAQABo4GkMIGhMB0GA1UdDgQW
BBTj0J3eIIbGM31Rpg7mrUBes3Xs0zByBgNVHSMEazBpgBTj0J3eIIbGM31Rpg7m
rUBes3Xs06FGpEQwQjELMAkGA1UEBhMCVUsxEDAOBgNVBAgTB0VuZ2xhbmQxDzAN
BgNVBAoTBkJlbG84MjEQMA4GA1UEAxMHZGVtbyBDQYIJAN/5SRdR7+JRMAwGA1Ud
EwQFMAMBAf8wDQYJKoZIhvcNAQEFBQADgYEAIHzSv5eLVSeMZFksqIioBTYX7LlQ
AfLFGosl1mEFZ17vwVCTyb3EbcWLaAI5plaN7uDsTiXkR6NwB7tZaxiPu6ESfD1E
Bw+N8j9Xaujnq4JWP0MdQWyNaRCdxVzBld8u9c6B3YK4QqjrW5EXQheA+waVXUs7
m5XjN9rKVbnwk5Y=
-----END CERTIFICATE-----
