Certificate:
    Data:
        Version: 3 (0x2)
        Serial Number:
            df:f9:49:17:51:ef:e2:52
        Signature Algorithm: sha1WithRSAEncryption
        Issuer: C=UK, ST=England, O=Belo82, CN=demo CA
        Validity
            Not Before: Jul 14 19:01:31 2015 GMT
            Not After : Jul 13 19:01:31 2016 GMT
        Subject: C=UK, ST=England, L=London, O=Belo82, CN=Test User
        Subject Public Key Info:
            Public Key Algorithm: rsaEncryption
            RSA Public Key: (1024 bit)
                Modulus (1024 bit):
                    00:9e:88:5e:1b:97:79:3d:80:30:56:e3:5f:4e:1f:
                    74:50:ec:ce:e3:54:a3:5a:42:35:92:5a:d6:e2:25:
                    5c:0e:e7:17:8d:5a:5b:ba:c7:e7:54:94:8e:2a:d5:
                    ca:51:5e:8a:e3:86:7d:18:8c:99:f7:5f:0b:68:6d:
                    be:f6:0b:a1:75:5e:f9:56:92:89:c7:9c:41:17:e3:
                    a5:39:ce:e1:05:10:48:00:ed:be:99:a9:cd:f1:c5:
                    e5:64:30:19:9f:75:5d:d3:3f:f7:ef:64:ca:f1:db:
                    54:f1:6d:12:5f:46:ac:5b:d7:76:8a:13:db:04:74:
                    46:80:9a:0d:56:c5:73:10:db
                Exponent: 65537 (0x10001)
        X509v3 extensions:
            X509v3 Basic Constraints: 
                CA:FALSE
            Netscape Comment: 
                OpenSSL Generated Certificate
            X509v3 Subject Key Identifier: 
                84:A5:3A:67:77:C5:29:B0:A7:76:A5:C3:8F:3C:83:96:38:EF:11:B3
            X509v3 Authority Key Identifier: 
                keyid:E3:D0:9D:DE:20:86:C6:33:7D:51:A6:0E:E6:AD:40:5E:B3:75:EC:D3

    Signature Algorithm: sha1WithRSAEncryption
        1c:55:06:30:d3:af:ab:f8:69:5f:03:94:d4:de:0c:a1:86:a0:
        7a:45:5e:00:32:82:5a:4d:24:0c:43:8f:12:ff:5d:a2:a6:f3:
        5f:86:aa:43:82:a1:19:aa:3d:12:97:6d:e6:3c:01:f0:0e:35:
        b4:07:dc:e2:e9:01:4d:0e:79:68:4c:7c:26:84:29:eb:8d:1a:
        85:bf:79:b5:bc:24:99:52:94:08:a8:3e:b5:71:1f:47:4a:b1:
        b5:51:7a:e2:80:eb:a0:99:0c:c3:93:56:e1:a7:38:8c:f0:30:
        bd:d2:2e:c2:1b:98:d3:5f:da:08:ff:5a:4e:8e:e2:10:cd:94:
        cb:fa
-----BEGIN CERTIFICATE-----
MIICkDCCAfmgAwIBAgIJAN/5SRdR7+JSMA0GCSqGSIb3DQEBBQUAMEIxCzAJBgNV
BAYTAlVLMRAwDgYDVQQIEwdFbmdsYW5kMQ8wDQYDVQQKEwZCZWxvODIxEDAOBgNV
BAMTB2RlbW8gQ0EwHhcNMTUwNzE0MTkwMTMxWhcNMTYwNzEzMTkwMTMxWjBVMQsw
CQYDVQQGEwJVSzEQMA4GA1UECBMHRW5nbGFuZDEPMA0GA1UEBxMGTG9uZG9uMQ8w
DQYDVQQKEwZCZWxvODIxEjAQBgNVBAMTCVRlc3QgVXNlcjCBnzANBgkqhkiG9w0B
AQEFAAOBjQAwgYkCgYEAnoheG5d5PYAwVuNfTh90UOzO41SjWkI1klrW4iVcDucX
jVpbusfnVJSOKtXKUV6K44Z9GIyZ918LaG2+9guhdV75VpKJx5xBF+OlOc7hBRBI
AO2+manN8cXlZDAZn3Vd0z/372TK8dtU8W0SX0asW9d2ihPbBHRGgJoNVsVzENsC
AwEAAaN7MHkwCQYDVR0TBAIwADAsBglghkgBhvhCAQ0EHxYdT3BlblNTTCBHZW5l
cmF0ZWQgQ2VydGlmaWNhdGUwHQYDVR0OBBYEFISlOmd3xSmwp3alw488g5Y47xGz
MB8GA1UdIwQYMBaAFOPQnd4ghsYzfVGmDuatQF6zdezTMA0GCSqGSIb3DQEBBQUA
A4GBABxVBjDTr6v4aV8DlNTeDKGGoHpFXgAyglpNJAxDjxL/XaKm81+GqkOCoRmq
PRKXbeY8AfAONbQH3OLpAU0OeWhMfCaEKeuNGoW/ebW8JJlSlAioPrVxH0dKsbVR
euKA66CZDMOTVuGnOIzwML3SLsIbmNNf2gj/Wk6O4hDNlMv6
-----END CERTIFICATE-----
