Certificate:
    Data:
        Version: 3 (0x2)
        Serial Number:
            df:f9:49:17:51:ef:e2:53
        Signature Algorithm: sha1WithRSAEncryption
        Issuer: C=UK, ST=England, O=Belo82, CN=demo CA
        Validity
            Not Before: Jul 14 20:06:44 2015 GMT
            Not After : Jul 13 20:06:44 2016 GMT
        Subject: C=UK, ST=England, L=London, O=Test Organisation, CN=Test User
        Subject Public Key Info:
            Public Key Algorithm: rsaEncryption
            RSA Public Key: (1024 bit)
                Modulus (1024 bit):
                    00:c0:8c:a3:57:a0:3a:60:23:54:82:e5:85:08:fe:
                    30:75:fc:4c:8f:d2:00:5f:71:3a:5e:36:9b:87:9f:
                    ee:05:e2:02:ac:f9:f0:d1:cb:42:cb:bf:17:0d:45:
                    b1:7c:7e:b6:b0:15:ce:e9:0a:f0:82:e8:b5:fc:5e:
                    ab:76:e5:48:10:fc:e3:d5:7b:86:36:bd:8e:e8:eb:
                    b9:7a:a9:52:74:8c:02:88:2e:02:ea:5a:35:d8:fd:
                    4c:e1:23:90:b7:88:6f:eb:1b:2c:75:c0:ea:00:f2:
                    73:52:a2:d0:e9:f1:9a:90:b0:aa:cd:c2:7d:61:ea:
                    f7:55:c0:43:8d:32:45:2d:01
                Exponent: 65537 (0x10001)
        X509v3 extensions:
            X509v3 Basic Constraints: 
                CA:FALSE
            Netscape Comment: 
                OpenSSL Generated Certificate
            X509v3 Subject Key Identifier: 
                FF:7F:E8:78:BD:DA:42:61:96:D6:B0:CE:E4:6C:06:70:82:22:0E:40
            X509v3 Authority Key Identifier: 
                keyid:E3:D0:9D:DE:20:86:C6:33:7D:51:A6:0E:E6:AD:40:5E:B3:75:EC:D3

    Signature Algorithm: sha1WithRSAEncryption
        ca:a0:44:31:11:20:4f:be:07:79:2a:4e:76:55:73:57:e3:63:
        87:4d:de:18:88:55:9a:55:1f:e7:4b:0c:a3:a6:92:91:c9:f3:
        82:c4:73:7c:50:c6:f6:d2:9f:28:1f:79:94:7c:f0:5c:5d:d9:
        c2:56:3b:ea:f5:fa:19:0d:ca:23:e7:09:dd:d2:40:a1:d1:a4:
        d4:40:41:fe:12:98:b4:d1:a3:03:cd:05:d9:15:11:fa:32:dc:
        7c:c6:b4:fa:23:45:63:64:2c:79:eb:6b:32:0b:58:e5:11:f9:
        ba:66:6b:1c:e4:79:ca:3d:ed:f4:62:f9:e1:d0:00:8f:10:a1:
        8b:65
-----BEGIN CERTIFICATE-----
MIICmzCCAgSgAwIBAgIJAN/5SRdR7+JTMA0GCSqGSIb3DQEBBQUAMEIxCzAJBgNV
BAYTAlVLMRAwDgYDVQQIEwdFbmdsYW5kMQ8wDQYDVQQKEwZCZWxvODIxEDAOBgNV
BAMTB2RlbW8gQ0EwHhcNMTUwNzE0MjAwNjQ0WhcNMTYwNzEzMjAwNjQ0WjBgMQsw
CQYDVQQGEwJVSzEQMA4GA1UECBMHRW5nbGFuZDEPMA0GA1UEBxMGTG9uZG9uMRow
GAYDVQQKExFUZXN0IE9yZ2FuaXNhdGlvbjESMBAGA1UEAxMJVGVzdCBVc2VyMIGf
MA0GCSqGSIb3DQEBAQUAA4GNADCBiQKBgQDAjKNXoDpgI1SC5YUI/jB1/EyP0gBf
cTpeNpuHn+4F4gKs+fDRy0LLvxcNRbF8frawFc7pCvCC6LX8Xqt25UgQ/OPVe4Y2
vY7o67l6qVJ0jAKILgLqWjXY/UzhI5C3iG/rGyx1wOoA8nNSotDp8ZqQsKrNwn1h
6vdVwEONMkUtAQIDAQABo3sweTAJBgNVHRMEAjAAMCwGCWCGSAGG+EIBDQQfFh1P
cGVuU1NMIEdlbmVyYXRlZCBDZXJ0aWZpY2F0ZTAdBgNVHQ4EFgQU/3/oeL3aQmGW
1rDO5GwGcIIiDkAwHwYDVR0jBBgwFoAU49Cd3iCGxjN9UaYO5q1AXrN17NMwDQYJ
KoZIhvcNAQEFBQADgYEAyqBEMREgT74HeSpOdlVzV+Njh03eGIhVmlUf50sMo6aS
kcnzgsRzfFDG9tKfKB95lHzwXF3ZwlY76vX6GQ3KI+cJ3dJAodGk1EBB/hKYtNGj
A80F2RUR+jLcfMa0+iNFY2QseetrMgtY5RH5umZrHOR5yj3t9GL54dAAjxChi2U=
-----END CERTIFICATE-----
